(lp0
S'314195_2059.log'
p1
aS'179475_1523.log'
p2
aS'344805_924.log'
p3
aS'353264_1505.log'
p4
aS'542766_562.log'
p5
aS'240742_1188.log'
p6
aS'306344_345.log'
p7
aS'338473_415.log'
p8
aS'173126_571.log'
p9
aS'292745_35.log'
p10
a.