(lp0
S'449683_131.html'
p1
aS'381071_4.html'
p2
aS'135495_16.html'
p3
aS'412801_58.html'
p4
aS'282159_33.html'
p5
aS'025667_28.html'
p6
aS'156471_8.html'
p7
aS'347112_3.html'
p8
aS'593137_13.html'
p9
aS'300062_2.html'
p10
a.