(lp0
S'513591_2993.csv'
p1
aS'157055_3381.csv'
p2
aS'248920_2836.csv'
p3
aS'131213_2882.csv'
p4
aS'089672_1462.csv'
p5
aS'331332_1929.csv'
p6
aS'469079_0.csv'
p7
aS'487693_664.csv'
p8
aS'177939_184.csv'
p9
aS'855135_84.csv'
p10
a.