(lp0
S'668247_69.jpg'
p1
aS'396403_0.jpg'
p2
aS'214724_1.jpg'
p3
aS'462225_30.jpg'
p4
aS'457189_28.jpg'
p5
aS'678686_75.jpg'
p6
aS'779437_13.jpg'
p7
aS'808375_84.jpg'
p8
aS'241747_32.jpg'
p9
aS'189435_68.jpg'
p10
a.